target datalayout = "e-m:e-p270:32:32-p271:32:32-p272:64:64-i64:64-i128:128-f80:128-n8:16:32:64-S128"
target triple = "x86_64-unknown-linux-gnu"

%class.mk_extract_proc = type { ptr, i32, i32, ptr, ptr }

; Function Attrs: mustprogress nounwind uwtable
define hidden void @_ZN15mk_extract_procC2ER7bv_util(ptr noundef nonnull align 8 dereferenceable(32) %this, ptr noundef nonnull align 8 dereferenceable(24) %u) unnamed_addr #4 align 2 {
entry:
  %this.addr = alloca ptr, align 8
  %u.addr = alloca ptr, align 8
  store ptr %this, ptr %this.addr, align 8
  store ptr %u, ptr %u.addr, align 8
  %this1 = load ptr, ptr %this.addr, align 8
  %m_util = getelementptr inbounds %class.mk_extract_proc, ptr %this1, i32 0, i32 0
  %0 = load ptr, ptr %u.addr, align 8
  store ptr %0, ptr %m_util, align 8
  %m_high = getelementptr inbounds %class.mk_extract_proc, ptr %this1, i32 0, i32 1
  store i32 0, ptr %m_high, align 8
  %m_low = getelementptr inbounds %class.mk_extract_proc, ptr %this1, i32 0, i32 2
  store i32 -1, ptr %m_low, align 4
  %m_domain = getelementptr inbounds %class.mk_extract_proc, ptr %this1, i32 0, i32 3
  store ptr null, ptr %m_domain, align 8
  %m_f_cached = getelementptr inbounds %class.mk_extract_proc, ptr %this1, i32 0, i32 4
  store ptr null, ptr %m_f_cached, align 8
  ret void
}