; Function Attrs: mustprogress nofree norecurse nosync nounwind willreturn memory(argmem: write) uwtable
define hidden void @_ZN15mk_extract_procC2ER7bv_util(ptr nocapture noundef nonnull writeonly align 8 dereferenceable(32) %this, ptr noundef nonnull align 8 dereferenceable(24) %u) unnamed_addr #3 align 2 {
entry:
  store ptr %u, ptr %this, align 8
  %m_high = getelementptr inbounds i8, ptr %this, i64 8
  store i32 0, ptr %m_high, align 8
  %m_low = getelementptr inbounds i8, ptr %this, i64 12
  store i32 -1, ptr %m_low, align 4
  %m_domain = getelementptr inbounds i8, ptr %this, i64 16
  tail call void @llvm.memset.p0.i64(ptr noundef nonnull align 8 dereferenceable(16) %m_domain, i8 0, i64 16, i1 false)
  ret void
}